target datalayout = "e-m:e-p270:32:32-p271:32:32-p272:64:64-i64:64-i128:128-f80:128-n8:16:32:64-S128"
target triple = "x86_64-pc-linux-gnu"

%union.pthread_mutex_t = type { %struct.__pthread_mutex_s }
%struct.__pthread_mutex_s = type { i32, i32, i32, i32, i32, i16, i16, %struct.__pthread_internal_list }
%struct.__pthread_internal_list = type { ptr, ptr }
%struct.COND_TYPE = type { %union.pthread_mutex_t, %union.pthread_cond_t }
%union.pthread_cond_t = type { %struct.__pthread_cond_s }
%struct.__pthread_cond_s = type { %union.__atomic_wide_counter, %union.__atomic_wide_counter, [2 x i32], [2 x i32], i32, i32, [2 x i32] }
%union.__atomic_wide_counter = type { i64 }

; Function Attrs: nounwind uwtable
define i32 @wolfSSL_CondInit(ptr noundef %0) #0 {
  %2 = alloca i32, align 4
  %3 = alloca ptr, align 8
  store ptr %0, ptr %3, align 8, !tbaa !47
  %4 = load ptr, ptr %3, align 8, !tbaa !47
  %5 = icmp eq ptr %4, null
  br i1 %5, label %6, label %7

6:                                                ; preds = %1
  store i32 -173, ptr %2, align 4
  br label %26

7:                                                ; preds = %1
  %8 = load ptr, ptr %3, align 8, !tbaa !47
  %9 = getelementptr inbounds nuw %struct.COND_TYPE, ptr %8, i32 0, i32 0
  %10 = call i32 @pthread_mutex_init(ptr noundef %9, ptr noundef null) #7
  %11 = icmp ne i32 %10, 0
  br i1 %11, label %12, label %13

12:                                               ; preds = %7
  store i32 -125, ptr %2, align 4
  br label %26

13:                                               ; preds = %7
  %14 = load ptr, ptr %3, align 8, !tbaa !47
  %15 = getelementptr inbounds nuw %struct.COND_TYPE, ptr %14, i32 0, i32 1
  %16 = call i32 @pthread_cond_init(ptr noundef %15, ptr noundef null) #7
  %17 = icmp ne i32 %16, 0
  br i1 %17, label %18, label %25

18:                                               ; preds = %13
  %19 = load ptr, ptr %3, align 8, !tbaa !47
  %20 = getelementptr inbounds nuw %struct.COND_TYPE, ptr %19, i32 0, i32 0
  %21 = call i32 @pthread_mutex_destroy(ptr noundef %20) #7
  %22 = icmp ne i32 %21, 0
  br i1 %22, label %23, label %24

23:                                               ; preds = %18
  store i32 -125, ptr %2, align 4
  br label %26

24:                                               ; preds = %18
  store i32 -125, ptr %2, align 4
  br label %26

25:                                               ; preds = %13
  store i32 0, ptr %2, align 4
  br label %26

26:                                               ; preds = %25, %24, %23, %12, %6
  %27 = load i32, ptr %2, align 4
  ret i32 %27
}