; Function Attrs: nounwind uwtable
define range(i32 -173, 1) i32 @wolfSSL_CondInit(ptr noundef %0) local_unnamed_addr #2 {
  %2 = icmp eq ptr %0, null
  br i1 %2, label %10, label %3

3:                                                ; preds = %1
  %4 = tail call i32 @pthread_mutex_init(ptr noundef nonnull %0, ptr noundef null) #16
  %.not = icmp eq i32 %4, 0
  br i1 %.not, label %5, label %10

5:                                                ; preds = %3
  %6 = getelementptr inbounds nuw i8, ptr %0, i64 40
  %7 = tail call i32 @pthread_cond_init(ptr noundef nonnull %6, ptr noundef null) #16
  %.not5 = icmp eq i32 %7, 0
  br i1 %.not5, label %10, label %8

8:                                                ; preds = %5
  %9 = tail call i32 @pthread_mutex_destroy(ptr noundef nonnull %0) #16
  br label %10

10:                                               ; preds = %5, %3, %1, %8
  %.0 = phi i32 [ -125, %8 ], [ -173, %1 ], [ -125, %3 ], [ 0, %5 ]
  ret i32 %.0
}